target datalayout = "e-m:e-p270:32:32-p271:32:32-p272:64:64-i64:64-i128:128-f80:128-n8:16:32:64-S128"
target triple = "x86_64-pc-linux-gnu"

%"class.Imf_3_4::CompressedIDManifest" = type { i32, i64, ptr }

; Function Attrs: mustprogress nounwind uwtable
define void @_ZN7Imf_3_420CompressedIDManifestD2Ev(ptr noundef nonnull align 8 dereferenceable(24) %0) unnamed_addr #5 align 2 {
  %2 = alloca ptr, align 8
  store ptr %0, ptr %2, align 8, !tbaa !105
  %3 = load ptr, ptr %2, align 8
  %4 = getelementptr inbounds nuw %"class.Imf_3_4::CompressedIDManifest", ptr %3, i32 0, i32 2
  %5 = load ptr, ptr %4, align 8, !tbaa !110
  %6 = icmp ne ptr %5, null
  br i1 %6, label %7, label %10

7:                                                ; preds = %1
  %8 = getelementptr inbounds nuw %"class.Imf_3_4::CompressedIDManifest", ptr %3, i32 0, i32 2
  %9 = load ptr, ptr %8, align 8, !tbaa !110
  call void @free(ptr noundef %9) #3
  br label %10

10:                                               ; preds = %7, %1
  %11 = getelementptr inbounds nuw %"class.Imf_3_4::CompressedIDManifest", ptr %3, i32 0, i32 2
  store ptr null, ptr %11, align 8, !tbaa !110
  %12 = getelementptr inbounds nuw %"class.Imf_3_4::CompressedIDManifest", ptr %3, i32 0, i32 0
  store i32 0, ptr %12, align 8, !tbaa !109
  ret void
}