; Function Attrs: mustprogress nounwind willreturn uwtable
define void @_ZN7Imf_3_420CompressedIDManifestD2Ev(ptr noundef nonnull align 8 captures(none) dereferenceable(24) initializes((0, 4)) %0) unnamed_addr #16 align 2 {
  %2 = getelementptr inbounds nuw i8, ptr %0, i64 16
  %3 = load ptr, ptr %2, align 8, !tbaa !105
  %.not = icmp eq ptr %3, null
  br i1 %.not, label %5, label %4

4:                                                ; preds = %1
  tail call void @free(ptr noundef nonnull %3) #34
  br label %5

5:                                                ; preds = %4, %1
  store ptr null, ptr %2, align 8, !tbaa !105
  store i32 0, ptr %0, align 8, !tbaa !104
  ret void
}